(lp0
(icrash_list.c_list
Crash_event
p1
(dp2
S'car_B'
p3
S'^324-^7A.Romero'
p4
sS'car_A'
p5
S'^371-^7G.Canales'
p6
sS'c_time'
p7
I3377
sS't_sector'
p8
S'T4'
p9
sS'ci_time'
p10
I3334
sS'car_A_PLID'
p11
I7
sS'car_B_PLID'
p12
I93
sS'signature'
p13
S'^371-^7G.Canales^324-^7A.Romero-8-3943334'
p14
sS'y'
p15
I-394
sS'x'
p16
I-8
sS'closing'
p17
F40.0
sba(icrash_list.c_list
Crash_event
p18
(dp19
g3
S'^324-^7A.Romero'
p20
sg5
S'^318-^7I.Alcal\xc3\xa0'
p21
sg7
I3405
sg8
g9
sg10
I3372
sg11
I92
sg12
I93
sg13
S'^318-^7I.Alcal\xc3\xa0^324-^7A.Romero-13-3863372'
p22
sg15
I-386
sg16
I-13
sg17
F63.0
sba(icrash_list.c_list
Crash_event
p23
(dp24
g3
S'^314-^7S.Giorsetti'
p25
sg5
S'^371-^7G.Canales'
p26
sg7
I3532
sg8
g9
sg10
I3490
sg11
I7
sg12
I16
sg13
S'^371-^7G.Canales^314-^7S.Giorsetti-16-3593490'
p27
sg15
I-359
sg16
I-16
sg17
F112.0
sba(icrash_list.c_list
Crash_event
p28
(dp29
g3
S'^388^7-R.Mart\xc3\xadnez'
p30
sg5
S'^399-^7N.Saitcevsky'
p31
sg7
I4242
sg8
S'T3-T4'
p32
sg10
I4186
sg11
I61
sg12
I83
sg13
S'^399-^7N.Saitcevsky^388^7-R.Mart\xc3\xadnez28174186'
p33
sg15
I17
sg16
I28
sg17
F25.0
sba(icrash_list.c_list
Crash_event
p34
(dp35
g3
S'^328-^7J.Molina'
p36
sg5
S'^307-^7D.Monta\xc3\xb1o'
p37
sg7
I4278
sg8
g32
sg10
I4238
sg11
I71
sg12
I88
sg13
S'^307-^7D.Monta\xc3\xb1o^328-^7J.Molina23464238'
p38
sg15
I46
sg16
I23
sg17
F36.0
sba(icrash_list.c_list
Crash_event
p39
(dp40
g3
S'^302-^7D.F.Sanchez'
p41
sg5
S'^345^7-J.Jaramillo'
p42
sg7
I4328
sg8
g32
sg10
I4286
sg11
I85
sg12
I89
sg13
S'^345^7-J.Jaramillo^302-^7D.F.Sanchez27344286'
p43
sg15
I34
sg16
I27
sg17
F51.0
sba(icrash_list.c_list
Crash_event
p44
(dp45
g3
S'^345^7-J.Jaramillo'
p46
sg5
S'^322-^7J.G\xc3\xb3mez'
p47
sg7
I4343
sg8
g32
sg10
I4297
sg11
I27
sg12
I85
sg13
S'^322-^7J.G\xc3\xb3mez^345^7-J.Jaramillo29354297'
p48
sg15
I35
sg16
I29
sg17
F27.0
sba(icrash_list.c_list
Crash_event
p49
(dp50
g3
S'^302-^7D.F.Sanchez'
p51
sg5
S'^399-^7N.Saitcevsky'
p52
sg7
I4357
sg8
g32
sg10
I4332
sg11
I61
sg12
I89
sg13
S'^399-^7N.Saitcevsky^302-^7D.F.Sanchez22514332'
p53
sg15
I51
sg16
I22
sg17
F27.0
sba(icrash_list.c_list
Crash_event
p54
(dp55
g3
S'^337-^7J.Fern\xc3\xa1ndez'
p56
sg5
S'^311-^7E.Rojas'
p57
sg7
I4482
sg8
g32
sg10
I4463
sg11
I15
sg12
I34
sg13
S'^311-^7E.Rojas^337-^7J.Fern\xc3\xa1ndez23454463'
p58
sg15
I45
sg16
I23
sg17
F25.0
sba(icrash_list.c_list
Crash_event
p59
(dp60
g3
S'^337-^7J.Fern\xc3\xa1ndez'
p61
sg5
S'^311-^7E.Rojas'
p62
sg7
I4683
sg8
g32
sg10
I4636
sg11
I15
sg12
I34
sg13
S'^311-^7E.Rojas^337-^7J.Fern\xc3\xa1ndez15754636'
p63
sg15
I75
sg16
I15
sg17
F93.0
sba(icrash_list.c_list
Crash_event
p64
(dp65
g3
S'^318-^7I.Alcal\xc3\xa0'
p66
sg5
S'^364-^7L.Chiodini'
p67
sg7
I4797
sg8
g32
sg10
I4726
sg11
I64
sg12
I92
sg13
S'^364-^7L.Chiodini^318-^7I.Alcal\xc3\xa021594726'
p68
sg15
I59
sg16
I21
sg17
F19.0
sba(icrash_list.c_list
Crash_event
p69
(dp70
g3
S'^373^7-J.Jurado'
p71
sg5
S'^311-^7E.Rojas'
p72
sg7
I4797
sg8
g32
sg10
I4741
sg11
I15
sg12
I17
sg13
S'^311-^7E.Rojas^373^7-J.Jurado121054741'
p73
sg15
I105
sg16
I12
sg17
F76.0
sba(icrash_list.c_list
Crash_event
p74
(dp75
g3
S'^318-^7I.Alcal\xc3\xa0'
p76
sg5
S'^308^7-D.Pastrana'
p77
sg7
I4902
sg8
g32
sg10
I4848
sg11
I1
sg12
I92
sg13
S'^308^7-D.Pastrana^318-^7I.Alcal\xc3\xa06854848'
p78
sg15
I85
sg16
I6
sg17
F47.0
sba(icrash_list.c_list
Crash_event
p79
(dp80
g3
S'^388^7-R.Mart\xc3\xadnez'
p81
sg5
S'^307-^7D.Monta\xc3\xb1o'
p82
sg7
I5560
sg8
S'T3'
p83
sg10
I5504
sg11
I71
sg12
I83
sg13
S'^307-^7D.Monta\xc3\xb1o^388^7-R.Mart\xc3\xadnez354455504'
p84
sg15
I445
sg16
I35
sg17
F56.0
sba(icrash_list.c_list
Crash_event
p85
(dp86
g3
S'^318-^7I.Alcal\xc3\xa0'
p87
sg5
S'^305-^7E. Birch'
p88
sg7
I6112
sg8
g83
sg10
I6100
sg11
I58
sg12
I92
sg13
S'^305-^7E. Birch^318-^7I.Alcal\xc3\xa0404386100'
p89
sg15
I438
sg16
I40
sg17
F35.0
sba(icrash_list.c_list
Crash_event
p90
(dp91
g3
S'^305-^7E. Birch'
p92
sg5
S'^311-^7E.Rojas'
p93
sg7
I6368
sg8
g83
sg10
I6312
sg11
I15
sg12
I58
sg13
S'^311-^7E.Rojas^305-^7E. Birch294536312'
p94
sg15
I453
sg16
I29
sg17
F101.0
sba(icrash_list.c_list
Crash_event
p95
(dp96
g3
S'^357-^7V.Beltran'
p97
sg5
S'^317-^7D.Cury'
p98
sg7
I6513
sg8
g83
sg10
I6455
sg11
I14
sg12
I66
sg13
S'^317-^7D.Cury^357-^7V.Beltran-1123896455'
p99
sg15
I389
sg16
I-112
sg17
F12.0
sba(icrash_list.c_list
Crash_event
p100
(dp101
g3
S'^360-^7M.E.Trochimezuk'
p102
sg5
S'^311-^7E.Rojas'
p103
sg7
I6559
sg8
g83
sg10
I6523
sg11
I15
sg12
I44
sg13
S'^311-^7E.Rojas^360-^7M.E.Trochimezuk214536523'
p104
sg15
I453
sg16
I21
sg17
F53.0
sba(icrash_list.c_list
Crash_event
p105
(dp106
g3
S'^327-^7L.Benitez'
p107
sg5
S'^312-^7D.Morgan'
p108
sg7
I6691
sg8
S'T2-T3'
p109
sg10
I6647
sg11
I42
sg12
I65
sg13
S'^312-^7D.Morgan^327-^7L.Benitez-364696647'
p110
sg15
I469
sg16
I-36
sg17
F33.0
sba(icrash_list.c_list
Crash_event
p111
(dp112
g3
S'^306-^7S.Iglesias'
p113
sg5
S'^360-^7M.E.Trochimezuk'
p114
sg7
I6726
sg8
g83
sg10
I6668
sg11
I44
sg12
I80
sg13
S'^360-^7M.E.Trochimezuk^306-^7S.Iglesias44526668'
p115
sg15
I452
sg16
I4
sg17
F37.0
sba(icrash_list.c_list
Crash_event
p116
(dp117
g3
S'^357-^7V.Beltran'
p118
sg5
S'^340-^7P. Mart\xc3\xadnez'
p119
sg7
I7041
sg8
g109
sg10
I6991
sg11
I39
sg12
I66
sg13
S'^340-^7P. Mart\xc3\xadnez^357-^7V.Beltran-365036991'
p120
sg15
I503
sg16
I-36
sg17
F27.0
sba(icrash_list.c_list
Crash_event
p121
(dp122
g3
S'^323-^7C.Persico'
p123
sg5
S'^374-^7S.Rodriguez'
p124
sg7
I10058
sg8
g9
sg10
I10015
sg11
I5
sg12
I33
sg13
S'^374-^7S.Rodriguez^323-^7C.Persico-453-52410015'
p125
sg15
I-524
sg16
I-453
sg17
F21.0
sba(icrash_list.c_list
Crash_event
p126
(dp127
g3
S'^323-^7C.Persico'
p128
sg5
S'^317-^7D.Cury'
p129
sg7
I10355
sg8
g9
sg10
I10312
sg11
I14
sg12
I33
sg13
S'^317-^7D.Cury^323-^7C.Persico-442-58010312'
p130
sg15
I-580
sg16
I-442
sg17
F45.0
sba(icrash_list.c_list
Crash_event
p131
(dp132
g3
S'^357-^7V.Beltran'
p133
sg5
S'^317-^7D.Cury'
p134
sg7
I10426
sg8
g9
sg10
I10380
sg11
I14
sg12
I66
sg13
S'^317-^7D.Cury^357-^7V.Beltran-431-58710380'
p135
sg15
I-587
sg16
I-431
sg17
F54.0
sba(icrash_list.c_list
Crash_event
p136
(dp137
g3
S'^305-^7E. Birch'
p138
sg5
S'^360-^7M.E.Trochimezuk'
p139
sg7
I10487
sg8
g9
sg10
I10466
sg11
I44
sg12
I58
sg13
S'^360-^7M.E.Trochimezuk^305-^7E. Birch-214-7710466'
p140
sg15
I-77
sg16
I-214
sg17
F55.0
sba(icrash_list.c_list
Crash_event
p141
(dp142
g3
S'^357-^7V.Beltran'
p143
sg5
S'^340-^7P. Mart\xc3\xadnez'
p144
sg7
I10487
sg8
g9
sg10
I10435
sg11
I39
sg12
I66
sg13
S'^340-^7P. Mart\xc3\xadnez^357-^7V.Beltran-427-58910435'
p145
sg15
I-589
sg16
I-427
sg17
F72.0
sba(icrash_list.c_list
Crash_event
p146
(dp147
g3
S'^328-^7J.Molina'
p148
sg5
S'^313-^7j.llado'
p149
sg7
I10609
sg8
g9
sg10
I10576
sg11
I72
sg12
I88
sg13
S'^313-^7j.llado^328-^7J.Molina-412-59710576'
p150
sg15
I-597
sg16
I-412
sg17
F48.0
sba(icrash_list.c_list
Crash_event
p151
(dp152
g3
S'^328-^7J.Molina'
p153
sg5
S'^340-^7P. Mart\xc3\xadnez'
p154
sg7
I10634
sg8
g9
sg10
I10575
sg11
I39
sg12
I88
sg13
S'^340-^7P. Mart\xc3\xadnez^328-^7J.Molina-406-59910575'
p155
sg15
I-599
sg16
I-406
sg17
F48.0
sba(icrash_list.c_list
Crash_event
p156
(dp157
g3
S'^328-^7J.Molina'
p158
sg5
S'^357-^7V.Beltran'
p159
sg7
I10702
sg8
g9
sg10
I10651
sg11
I66
sg12
I88
sg13
S'^357-^7V.Beltran^328-^7J.Molina-395-60610651'
p160
sg15
I-606
sg16
I-395
sg17
F41.0
sba(icrash_list.c_list
Crash_event
p161
(dp162
g3
S'^388^7-R.Mart\xc3\xadnez'
p163
sg5
S'^307-^7D.Monta\xc3\xb1o'
p164
sg7
I10785
sg8
g9
sg10
I10743
sg11
I71
sg12
I83
sg13
S'^307-^7D.Monta\xc3\xb1o^388^7-R.Mart\xc3\xadnez-399-60510743'
p165
sg15
I-605
sg16
I-399
sg17
F11.0
sba(icrash_list.c_list
Crash_event
p166
(dp167
g3
S'^305-^7E. Birch'
p168
sg5
S'^314-^7S.Giorsetti'
p169
sg7
I12001
sg8
g9
sg10
I11944
sg11
I16
sg12
I58
sg13
S'^314-^7S.Giorsetti^305-^7E. Birch-450-50911944'
p170
sg15
I-509
sg16
I-450
sg17
F21.0
sba(icrash_list.c_list
Crash_event
p171
(dp172
g3
S'^345^7-J.Jaramillo'
p173
sg5
S'^388^7-R.Mart\xc3\xadnez'
p174
sg7
I12454
sg8
g9
sg10
I12413
sg11
I83
sg12
I85
sg13
S'^388^7-R.Mart\xc3\xadnez^345^7-J.Jaramillo-27-65612413'
p175
sg15
I-656
sg16
I-27
sg17
F18.0
sba(icrash_list.c_list
Crash_event
p176
(dp177
g3
S'^324-^7A.Romero'
p178
sg5
S'^357-^7V.Beltran'
p179
sg7
I13154
sg8
g9
sg10
I13123
sg11
I66
sg12
I93
sg13
S'^357-^7V.Beltran^324-^7A.Romero-54-69213123'
p180
sg15
I-692
sg16
I-54
sg17
F12.0
sba(icrash_list.c_list
Crash_event
p181
(dp182
g3
S'^345^7-J.Jaramillo'
p183
sg5
S'^322-^7J.G\xc3\xb3mez'
p184
sg7
I15156
sg8
g83
sg10
I15104
sg11
I27
sg12
I85
sg13
S'^322-^7J.G\xc3\xb3mez^345^7-J.Jaramillo4141015104'
p185
sg15
I410
sg16
I41
sg17
F52.0
sba(icrash_list.c_list
Crash_event
p186
(dp187
g3
S'^315-^7D.Menezes'
p188
sg5
S'^366-^7E.Garcia'
p189
sg7
I15280
sg8
g83
sg10
I15233
sg11
I47
sg12
I81
sg13
S'^366-^7E.Garcia^315-^7D.Menezes4042215233'
p190
sg15
I422
sg16
I40
sg17
F48.0
sba(icrash_list.c_list
Crash_event
p191
(dp192
g3
S'^388^7-R.Mart\xc3\xadnez'
p193
sg5
S'^366-^7E.Garcia'
p194
sg7
I15309
sg8
g83
sg10
I15258
sg11
I47
sg12
I83
sg13
S'^366-^7E.Garcia^388^7-R.Mart\xc3\xadnez4042815258'
p195
sg15
I428
sg16
I40
sg17
F21.0
sba(icrash_list.c_list
Crash_event
p196
(dp197
g3
S'^388^7-R.Mart\xc3\xadnez'
p198
sg5
S'^321-^7D.Martinez'
p199
sg7
I15424
sg8
g83
sg10
I15371
sg11
I82
sg12
I83
sg13
S'^321-^7D.Martinez^388^7-R.Mart\xc3\xadnez4244415371'
p200
sg15
I444
sg16
I42
sg17
F9.0
sba(icrash_list.c_list
Crash_event
p201
(dp202
g3
S'^328-^7J.Molina'
p203
sg5
S'^321-^7D.Martinez'
p204
sg7
I15482
sg8
g83
sg10
I15428
sg11
I82
sg12
I88
sg13
S'^321-^7D.Martinez^328-^7J.Molina3845115428'
p205
sg15
I451
sg16
I38
sg17
F57.0
sba(icrash_list.c_list
Crash_event
p206
(dp207
g3
S'^366-^7E.Garcia'
p208
sg5
S'^322-^7J.G\xc3\xb3mez'
p209
sg7
I15579
sg8
g83
sg10
I15515
sg11
I27
sg12
I47
sg13
S'^322-^7J.G\xc3\xb3mez^366-^7E.Garcia1045915515'
p210
sg15
I459
sg16
I10
sg17
F67.0
sba(icrash_list.c_list
Crash_event
p211
(dp212
g3
S'^388^7-R.Mart\xc3\xadnez'
p213
sg5
S'^322-^7J.G\xc3\xb3mez'
p214
sg7
I15743
sg8
g83
sg10
I15701
sg11
I27
sg12
I83
sg13
S'^322-^7J.G\xc3\xb3mez^388^7-R.Mart\xc3\xadnez245515701'
p215
sg15
I455
sg16
I2
sg17
F12.0
sba(icrash_list.c_list
Crash_event
p216
(dp217
g3
S'^318-^7I.Alcal\xc3\xa0'
p218
sg5
S'^321-^7D.Martinez'
p219
sg7
I16578
sg8
g83
sg10
I16539
sg11
I82
sg12
I92
sg13
S'^321-^7D.Martinez^318-^7I.Alcal\xc3\xa0-7633316539'
p220
sg15
I333
sg16
I-76
sg17
F31.0
sba(icrash_list.c_list
Crash_event
p221
(dp222
g3
S'^360-^7M.E.Trochimezuk'
p223
sg5
S'^337-^7J.Fern\xc3\xa1ndez'
p224
sg7
I19301
sg8
g109
sg10
I19257
sg11
I34
sg12
I44
sg13
S'^337-^7J.Fern\xc3\xa1ndez^360-^7M.E.Trochimezuk-8753819257'
p225
sg15
I538
sg16
I-87
sg17
F5.0
sba(icrash_list.c_list
Crash_event
p226
(dp227
g3
S'^324-^7A.Romero'
p228
sg5
S'^357-^7V.Beltran'
p229
sg7
I20346
sg8
g9
sg10
I20292
sg11
I66
sg12
I93
sg13
S'^357-^7V.Beltran^324-^7A.Romero-383-23020292'
p230
sg15
I-230
sg16
I-383
sg17
F20.0
sba(icrash_list.c_list
Crash_event
p231
(dp232
g3
S'^321-^7D.Martinez'
p233
sg5
S'^364-^7L.Chiodini'
p234
sg7
I22424
sg8
g9
sg10
I22371
sg11
I64
sg12
I82
sg13
S'^364-^7L.Chiodini^321-^7D.Martinez-27-65822371'
p235
sg15
I-658
sg16
I-27
sg17
F31.0
sba(icrash_list.c_list
Crash_event
p236
(dp237
g3
S'^357-^7V.Beltran'
p238
sg5
S'^311-^7E.Rojas'
p239
sg7
I28028
sg8
S'T1-T2'
p240
sg10
I27967
sg11
I15
sg12
I66
sg13
S'^311-^7E.Rojas^357-^7V.Beltran-20644127967'
p241
sg15
I441
sg16
I-206
sg17
F18.0
sba(icrash_list.c_list
Crash_event
p242
(dp243
g3
S'^357-^7V.Beltran'
p244
sg5
S'^311-^7E.Rojas'
p245
sg7
I28184
sg8
g240
sg10
I28139
sg11
I15
sg12
I66
sg13
S'^311-^7E.Rojas^357-^7V.Beltran-23438528139'
p246
sg15
I385
sg16
I-234
sg17
F10.0
sba(icrash_list.c_list
Crash_event
p247
(dp248
g3
S'^357-^7V.Beltran'
p249
sg5
S'^311-^7E.Rojas'
p250
sg7
I30377
sg8
g9
sg10
I30343
sg11
I15
sg12
I66
sg13
S'^311-^7E.Rojas^357-^7V.Beltran-449-49930343'
p251
sg15
I-499
sg16
I-449
sg17
F50.0
sba(icrash_list.c_list
Crash_event
p252
(dp253
g3
S'^357-^7V.Beltran'
p254
sg5
S'^373^7-J.Jurado'
p255
sg7
I30613
sg8
g9
sg10
I30557
sg11
I17
sg12
I66
sg13
S'^373^7-J.Jurado^357-^7V.Beltran-457-57030557'
p256
sg15
I-570
sg16
I-457
sg17
F21.0
sba(icrash_list.c_list
Crash_event
p257
(dp258
g3
S'^366-^7E.Garcia'
p259
sg5
S'^314-^7S.Giorsetti'
p260
sg7
I31083
sg8
g9
sg10
I31035
sg11
I16
sg12
I47
sg13
S'^314-^7S.Giorsetti^366-^7E.Garcia-355-71531035'
p261
sg15
I-715
sg16
I-355
sg17
F26.0
sba(icrash_list.c_list
Crash_event
p262
(dp263
g3
S'^323-^7C.Persico'
p264
sg5
S'^374-^7S.Rodriguez'
p265
sg7
I33197
sg8
g83
sg10
I33173
sg11
I5
sg12
I33
sg13
S'^374-^7S.Rodriguez^323-^7C.Persico-2540633173'
p266
sg15
I406
sg16
I-25
sg17
F19.0
sba(icrash_list.c_list
Crash_event
p267
(dp268
g3
S'^305-^7E. Birch'
p269
sg5
S'^373^7-J.Jurado'
p270
sg7
I39502
sg8
g9
sg10
I39447
sg11
I17
sg12
I58
sg13
S'^373^7-J.Jurado^305-^7E. Birch-375-22039447'
p271
sg15
I-220
sg16
I-375
sg17
F35.0
sba(icrash_list.c_list
Crash_event
p272
(dp273
g3
S'^337-^7J.Fern\xc3\xa1ndez'
p274
sg5
S'^311-^7E.Rojas'
p275
sg7
I40856
sg8
g9
sg10
I40807
sg11
I15
sg12
I34
sg13
S'^311-^7E.Rojas^337-^7J.Fern\xc3\xa1ndez-377-63040807'
p276
sg15
I-630
sg16
I-377
sg17
F212.0
sba(icrash_list.c_list
Crash_event
p277
(dp278
g3
S'^345^7-J.Jaramillo'
p279
sg5
S'^311-^7E.Rojas'
p280
sg7
I40862
sg8
g9
sg10
I40836
sg11
I15
sg12
I85
sg13
S'^311-^7E.Rojas^345^7-J.Jaramillo-375-63340836'
p281
sg15
I-633
sg16
I-375
sg17
F13.0
sba(icrash_list.c_list
Crash_event
p282
(dp283
g3
S'^311-^7E.Rojas'
p284
sg5
S'^371-^7G.Canales'
p285
sg7
I41724
sg8
g9
sg10
I41710
sg11
I7
sg12
I15
sg13
S'^371-^7G.Canales^311-^7E.Rojas-343-73241710'
p286
sg15
I-732
sg16
I-343
sg17
F13.0
sba(icrash_list.c_list
Crash_event
p287
(dp288
g3
S'^360-^7M.E.Trochimezuk'
p289
sg5
S'^373^7-J.Jurado'
p290
sg7
I43121
sg8
g9
sg10
I43075
sg11
I17
sg12
I44
sg13
S'^373^7-J.Jurado^360-^7M.E.Trochimezuk-30-67343075'
p291
sg15
I-673
sg16
I-30
sg17
F83.0
sba(icrash_list.c_list
Crash_event
p292
(dp293
g3
S'^305-^7E. Birch'
p294
sg5
S'^360-^7M.E.Trochimezuk'
p295
sg7
I43395
sg8
g9
sg10
I43360
sg11
I44
sg12
I58
sg13
S'^360-^7M.E.Trochimezuk^305-^7E. Birch-17-63543360'
p296
sg15
I-635
sg16
I-17
sg17
F38.0
sba(icrash_list.c_list
Crash_event
p297
(dp298
g3
S'^321-^7D.Martinez'
p299
sg5
S'^313-^7j.llado'
p300
sg7
I48346
sg8
g9
sg10
I48313
sg11
I72
sg12
I82
sg13
S'^313-^7j.llado^321-^7D.Martinez-457-55148313'
p301
sg15
I-551
sg16
I-457
sg17
F22.0
sba(icrash_list.c_list
Crash_event
p302
(dp303
g3
S'^322-^7J.G\xc3\xb3mez'
p304
sg5
S'^373^7-J.Jurado'
p305
sg7
I50310
sg8
g9
sg10
I50262
sg11
I17
sg12
I27
sg13
S'^373^7-J.Jurado^322-^7J.G\xc3\xb3mez-224-8850262'
p306
sg15
I-88
sg16
I-224
sg17
F31.0
sba(icrash_list.c_list
Crash_event
p307
(dp308
g3
S'^386-^7S.Durelli'
p309
sg5
S'^317-^7D.Cury'
p310
sg7
I56337
sg8
g9
sg10
I56288
sg11
I14
sg12
I90
sg13
S'^317-^7D.Cury^386-^7S.Durelli-431-58756288'
p311
sg15
I-587
sg16
I-431
sg17
F27.0
sba(icrash_list.c_list
Crash_event
p312
(dp313
g3
S'^302-^7D.F.Sanchez'
p314
sg5
S'^314-^7S.Giorsetti'
p315
sg7
I62953
sg8
g83
sg10
I62904
sg11
I16
sg12
I89
sg13
S'^314-^7S.Giorsetti^302-^7D.F.Sanchez-11736162904'
p316
sg15
I361
sg16
I-117
sg17
F28.0
sba(icrash_list.c_list
Crash_event
p317
(dp318
g3
S'^312-^7D.Morgan'
p319
sg5
S'^340-^7P. Mart\xc3\xadnez'
p320
sg7
I77004
sg8
g32
sg10
I11448
sg11
I39
sg12
I42
sg13
S'^340-^7P. Mart\xc3\xadnez^312-^7D.Morgan291711448'
p321
sg15
I17
sg16
I29
sg17
F13.0
sba(icrash_list.c_list
Crash_event
p322
(dp323
g3
S'^345^7-J.Jaramillo'
p324
sg5
S'^364-^7L.Chiodini'
p325
sg7
I79360
sg8
g9
sg10
I13796
sg11
I64
sg12
I85
sg13
S'^364-^7L.Chiodini^345^7-J.Jaramillo-24-65413796'
p326
sg15
I-654
sg16
I-24
sg17
F91.0
sba(icrash_list.c_list
Crash_event
p327
(dp328
g3
S'^305-^7E. Birch'
p329
sg5
S'^314-^7S.Giorsetti'
p330
sg7
I90891
sg8
g109
sg10
I25343
sg11
I16
sg12
I58
sg13
S'^314-^7S.Giorsetti^305-^7E. Birch-11352625343'
p331
sg15
I526
sg16
I-113
sg17
F11.0
sba(icrash_list.c_list
Crash_event
p332
(dp333
g3
S'^364-^7L.Chiodini'
p334
sg5
S'^314-^7S.Giorsetti'
p335
sg7
I98290
sg8
g83
sg10
I32715
sg11
I16
sg12
I64
sg13
S'^314-^7S.Giorsetti^364-^7L.Chiodini-1442832715'
p336
sg15
I428
sg16
I-14
sg17
F31.0
sba(icrash_list.c_list
Crash_event
p337
(dp338
g3
S'^321-^7D.Martinez'
p339
sg5
S'^399-^7N.Saitcevsky'
p340
sg7
I135566
sg8
g109
sg10
I4449
sg11
I61
sg12
I82
sg13
S'^399-^7N.Saitcevsky^321-^7D.Martinez-1445064449'
p341
sg15
I506
sg16
I-144
sg17
F10.0
sba(icrash_list.c_list
Crash_event
p342
(dp343
g3
S'^307-^7D.Monta\xc3\xb1o'
p344
sg5
S'^314-^7S.Giorsetti'
p345
sg7
I141911
sg8
g32
sg10
I10782
sg11
I16
sg12
I71
sg13
S'^314-^7S.Giorsetti^307-^7D.Monta\xc3\xb1o413910782'
p346
sg15
I139
sg16
I4
sg17
F17.0
sba(icrash_list.c_list
Crash_event
p347
(dp348
g3
S'^386-^7S.Durelli'
p349
sg5
S'^323-^7C.Persico'
p350
sg7
I169402
sg8
g83
sg10
I38278
sg11
I33
sg12
I90
sg13
S'^323-^7C.Persico^386-^7S.Durelli3943938278'
p351
sg15
I439
sg16
I39
sg17
F41.0
sba(icrash_list.c_list
Crash_event
p352
(dp353
g3
S'^312-^7D.Morgan'
p354
sg5
S'^314-^7S.Giorsetti'
p355
sg7
I174594
sg8
g9
sg10
I43470
sg11
I16
sg12
I42
sg13
S'^314-^7S.Giorsetti^312-^7D.Morgan-445-57743470'
p356
sg15
I-577
sg16
I-445
sg17
F10.0
sba(icrash_list.c_list
Crash_event
p357
(dp358
g3
S'^312-^7D.Morgan'
p359
sg5
S'^314-^7S.Giorsetti'
p360
sg7
I174855
sg8
g9
sg10
I43758
sg11
I16
sg12
I42
sg13
S'^314-^7S.Giorsetti^312-^7D.Morgan-382-62443758'
p361
sg15
I-624
sg16
I-382
sg17
F91.0
sba(icrash_list.c_list
Crash_event
p362
(dp363
g3
S'^399-^7N.Saitcevsky'
p364
sg5
S'^314-^7S.Giorsetti'
p365
sg7
I175429
sg8
g9
sg10
I44309
sg11
I16
sg12
I61
sg13
S'^314-^7S.Giorsetti^399-^7N.Saitcevsky-346-72944309'
p366
sg15
I-729
sg16
I-346
sg17
F164.0
sba(icrash_list.c_list
Crash_event
p367
(dp368
g3
S'^313-^7j.llado'
p369
sg5
S'^307-^7D.Monta\xc3\xb1o'
p370
sg7
I175594
sg8
g9
sg10
I44477
sg11
I71
sg12
I72
sg13
S'^307-^7D.Monta\xc3\xb1o^313-^7j.llado-332-74044477'
p371
sg15
I-740
sg16
I-332
sg17
F106.0
sba(icrash_list.c_list
Crash_event
p372
(dp373
g3
S'^323-^7C.Persico'
p374
sg5
S'^314-^7S.Giorsetti'
p375
sg7
I206928
sg8
g83
sg10
I10253
sg11
I16
sg12
I33
sg13
S'^314-^7S.Giorsetti^323-^7C.Persico-1443110253'
p376
sg15
I431
sg16
I-14
sg17
F10.0
sba(icrash_list.c_list
Crash_event
p377
(dp378
g3
S'^312-^7D.Morgan'
p379
sg5
S'^323-^7C.Persico'
p380
sg7
I215826
sg8
g83
sg10
I19177
sg11
I33
sg12
I42
sg13
S'^323-^7C.Persico^312-^7D.Morgan3939819177'
p381
sg15
I398
sg16
I39
sg17
F26.0
sba(icrash_list.c_list
Crash_event
p382
(dp383
g3
S'^312-^7D.Morgan'
p384
sg5
S'^323-^7C.Persico'
p385
sg7
I222565
sg8
g9
sg10
I25923
sg11
I33
sg12
I42
sg13
S'^323-^7C.Persico^312-^7D.Morgan-61-69125923'
p386
sg15
I-691
sg16
I-61
sg17
F27.0
sba(icrash_list.c_list
Crash_event
p387
(dp388
g3
S'^313-^7j.llado'
p389
sg5
S'^323-^7C.Persico'
p390
sg7
I223358
sg8
g9
sg10
I26700
sg11
I33
sg12
I72
sg13
S'^323-^7C.Persico^313-^7j.llado-26-66026700'
p391
sg15
I-660
sg16
I-26
sg17
F100.0
sba(icrash_list.c_list
Crash_event
p392
(dp393
g3
S'^323-^7C.Persico'
p394
sg5
S'^308^7-D.Pastrana'
p395
sg7
I237589
sg8
g83
sg10
I40938
sg11
I1
sg12
I33
sg13
S'^308^7-D.Pastrana^323-^7C.Persico-3646440938'
p396
sg15
I464
sg16
I-36
sg17
F35.0
sba(icrash_list.c_list
Crash_event
p397
(dp398
g3
S'^323-^7C.Persico'
p399
sg5
S'^308^7-D.Pastrana'
p400
sg7
I247002
sg8
g83
sg10
I50360
sg11
I1
sg12
I33
sg13
S'^308^7-D.Pastrana^323-^7C.Persico-4544950360'
p401
sg15
I449
sg16
I-45
sg17
F56.0
sba(icrash_list.c_list
Crash_event
p402
(dp403
g3
S'^312-^7D.Morgan'
p404
sg5
S'^337-^7J.Fern\xc3\xa1ndez'
p405
sg7
I267831
sg8
g9
sg10
I5642
sg11
I34
sg12
I42
sg13
S'^337-^7J.Fern\xc3\xa1ndez^312-^7D.Morgan-454-5635642'
p406
sg15
I-563
sg16
I-454
sg17
F40.0
sba(icrash_list.c_list
Crash_event
p407
(dp408
g3
S'^302-^7D.F.Sanchez'
p409
sg5
S'^369-^7A.Bertoni'
p410
sg7
I273070
sg8
g9
sg10
I10881
sg11
I41
sg12
I89
sg13
S'^369-^7A.Bertoni^302-^7D.F.Sanchez4-9610881'
p411
sg15
I-96
sg16
I4
sg17
F161.0
sba(icrash_list.c_list
Crash_event
p412
(dp413
g3
S'^340-^7P. Mart\xc3\xadnez'
p414
sg5
S'^323-^7C.Persico'
p415
sg7
I273748
sg8
g9
sg10
I11583
sg11
I33
sg12
I39
sg13
S'^323-^7C.Persico^340-^7P. Mart\xc3\xadnez-451-57311583'
p416
sg15
I-573
sg16
I-451
sg17
F37.0
sba(icrash_list.c_list
Crash_event
p417
(dp418
g3
S'^323-^7C.Persico'
p419
sg5
S'^308^7-D.Pastrana'
p420
sg7
I281062
sg8
g83
sg10
I18871
sg11
I1
sg12
I33
sg13
S'^308^7-D.Pastrana^323-^7C.Persico2346218871'
p421
sg15
I462
sg16
I23
sg17
F56.0
sba(icrash_list.c_list
Crash_event
p422
(dp423
g3
S'^327-^7L.Benitez'
p424
sg5
S'^323-^7C.Persico'
p425
sg7
I281998
sg8
g83
sg10
I19835
sg11
I33
sg12
I65
sg13
S'^323-^7C.Persico^327-^7L.Benitez3146119835'
p426
sg15
I461
sg16
I31
sg17
F5.0
sba.